; Function Attrs: mustprogress nounwind uwtable
define dso_local void @_ZN4base9HistogramD2Ev(ptr noundef nonnull align 8 dereferenceable(81) %this) unnamed_addr #11 align 2 personality ptr @__gxx_personality_v0 {
entry:
  store ptr getelementptr inbounds ({ [25 x ptr] }, ptr @_ZTVN4base9HistogramE, i64 0, i32 0, i64 2), ptr %this, align 8
  %logged_samples_ = getelementptr inbounds i8, ptr %this, i64 72
  %0 = load ptr, ptr %logged_samples_, align 8
  %cmp.not.i = icmp eq ptr %0, null
  br i1 %cmp.not.i, label %_ZNSt10unique_ptrIN4base16HistogramSamplesESt14default_deleteIS1_EED2Ev.exit, label %_ZNKSt14default_deleteIN4base16HistogramSamplesEEclEPS1_.exit.i

_ZNKSt14default_deleteIN4base16HistogramSamplesEEclEPS1_.exit.i: ; preds = %entry
  %vtable.i.i = load ptr, ptr %0, align 8
  %vfn.i.i = getelementptr inbounds i8, ptr %vtable.i.i, i64 8
  %1 = load ptr, ptr %vfn.i.i, align 8
  tail call void %1(ptr noundef nonnull align 8 dereferenceable(40) %0) #19
  br label %_ZNSt10unique_ptrIN4base16HistogramSamplesESt14default_deleteIS1_EED2Ev.exit

_ZNSt10unique_ptrIN4base16HistogramSamplesESt14default_deleteIS1_EED2Ev.exit: ; preds = %entry, %_ZNKSt14default_deleteIN4base16HistogramSamplesEEclEPS1_.exit.i
  store ptr null, ptr %logged_samples_, align 8
  %samples_ = getelementptr inbounds i8, ptr %this, i64 64
  %2 = load ptr, ptr %samples_, align 8
  %cmp.not.i1 = icmp eq ptr %2, null
  br i1 %cmp.not.i1, label %_ZNSt10unique_ptrIN4base12SampleVectorESt14default_deleteIS1_EED2Ev.exit, label %_ZNKSt14default_deleteIN4base12SampleVectorEEclEPS1_.exit.i

_ZNKSt14default_deleteIN4base12SampleVectorEEclEPS1_.exit.i: ; preds = %_ZNSt10unique_ptrIN4base16HistogramSamplesESt14default_deleteIS1_EED2Ev.exit
  %vtable.i.i2 = load ptr, ptr %2, align 8
  %vfn.i.i3 = getelementptr inbounds i8, ptr %vtable.i.i2, i64 8
  %3 = load ptr, ptr %vfn.i.i3, align 8
  tail call void %3(ptr noundef nonnull align 8 dereferenceable(88) %2) #19
  br label %_ZNSt10unique_ptrIN4base12SampleVectorESt14default_deleteIS1_EED2Ev.exit

_ZNSt10unique_ptrIN4base12SampleVectorESt14default_deleteIS1_EED2Ev.exit: ; preds = %_ZNSt10unique_ptrIN4base16HistogramSamplesESt14default_deleteIS1_EED2Ev.exit, %_ZNKSt14default_deleteIN4base12SampleVectorEEclEPS1_.exit.i
  store ptr null, ptr %samples_, align 8
  tail call void @_ZN4base13HistogramBaseD2Ev(ptr noundef nonnull align 8 dereferenceable(44) %this) #19
  ret void
}